target datalayout = "e-m:e-p270:32:32-p271:32:32-p272:64:64-i64:64-i128:128-f80:128-n8:16:32:64-S128"
target triple = "x86_64-unknown-linux-gnu"

; Function Attrs: mustprogress nounwind uwtable
define hidden void @_ZN6Assimp16CIOSystemWrapper5CloseEPNS_8IOStreamE(ptr noundef nonnull align 8 dereferenceable(40) %this, ptr noundef %pFile) unnamed_addr #0 align 2 {
entry:
  %this.addr = alloca ptr, align 8
  %pFile.addr = alloca ptr, align 8
  store ptr %this, ptr %this.addr, align 8
  store ptr %pFile, ptr %pFile.addr, align 8
  %0 = load ptr, ptr %pFile.addr, align 8
  %tobool = icmp ne ptr %0, null
  br i1 %tobool, label %if.end, label %if.then

if.then:                                          ; preds = %entry
  br label %delete.end

if.end:                                           ; preds = %entry
  %1 = load ptr, ptr %pFile.addr, align 8
  %isnull = icmp eq ptr %1, null
  br i1 %isnull, label %delete.end, label %delete.notnull

delete.notnull:                                   ; preds = %if.end
  %vtable = load ptr, ptr %1, align 8
  %vfn = getelementptr inbounds ptr, ptr %vtable, i64 1
  %2 = load ptr, ptr %vfn, align 8
  call void %2(ptr noundef nonnull align 8 dereferenceable(8) %1) #10
  br label %delete.end

delete.end:                                       ; preds = %delete.notnull, %if.end, %if.then
  ret void
}